target datalayout = "e-m:e-p270:32:32-p271:32:32-p272:64:64-i64:64-i128:128-f80:128-n8:16:32:64-S128"
target triple = "x86_64-pc-linux-gnu"

@.str = private unnamed_addr constant [128 x i8] c"generated/home/dtcxzyw/WorkSpace/Projects/compilers/llvm-opt-benchmark/bench/sundials/sundials/src/arkode/arkode_butcher_dirk.c\00", align 1
@.str.1 = private unnamed_addr constant [22 x i8] c"Unknown Butcher table\00", align 1
@.str.2 = private unnamed_addr constant [17 x i8] c"ARKODE_DIRK_NONE\00", align 1
@.str.3 = private unnamed_addr constant [26 x i8] c"ARKODE_BACKWARD_EULER_1_1\00", align 1
@.str.4 = private unnamed_addr constant [19 x i8] c"ARKODE_SDIRK_2_1_2\00", align 1
@.str.5 = private unnamed_addr constant [23 x i8] c"ARKODE_ARK2_DIRK_3_1_2\00", align 1
@.str.6 = private unnamed_addr constant [29 x i8] c"ARKODE_IMPLICIT_MIDPOINT_1_2\00", align 1
@.str.7 = private unnamed_addr constant [32 x i8] c"ARKODE_IMPLICIT_TRAPEZOIDAL_2_2\00", align 1
@.str.8 = private unnamed_addr constant [24 x i8] c"ARKODE_BILLINGTON_3_3_2\00", align 1
@.str.9 = private unnamed_addr constant [20 x i8] c"ARKODE_TRBDF2_3_3_2\00", align 1
@.str.10 = private unnamed_addr constant [21 x i8] c"ARKODE_KVAERNO_4_2_3\00", align 1
@.str.11 = private unnamed_addr constant [29 x i8] c"ARKODE_ARK324L2SA_DIRK_4_2_3\00", align 1
@.str.12 = private unnamed_addr constant [18 x i8] c"ARKODE_CASH_5_2_4\00", align 1
@.str.13 = private unnamed_addr constant [18 x i8] c"ARKODE_CASH_5_3_4\00", align 1
@.str.14 = private unnamed_addr constant [19 x i8] c"ARKODE_SDIRK_5_3_4\00", align 1
@.str.15 = private unnamed_addr constant [21 x i8] c"ARKODE_KVAERNO_5_3_4\00", align 1
@.str.16 = private unnamed_addr constant [29 x i8] c"ARKODE_ARK436L2SA_DIRK_6_3_4\00", align 1
@.str.17 = private unnamed_addr constant [29 x i8] c"ARKODE_ARK437L2SA_DIRK_7_3_4\00", align 1
@.str.18 = private unnamed_addr constant [21 x i8] c"ARKODE_KVAERNO_7_4_5\00", align 1
@.str.19 = private unnamed_addr constant [29 x i8] c"ARKODE_ARK548L2SA_DIRK_8_4_5\00", align 1
@.str.20 = private unnamed_addr constant [30 x i8] c"ARKODE_ARK548L2SAb_DIRK_8_4_5\00", align 1
@.str.21 = private unnamed_addr constant [27 x i8] c"ARKODE_ESDIRK324L2SA_4_2_3\00", align 1
@.str.22 = private unnamed_addr constant [27 x i8] c"ARKODE_ESDIRK325L2SA_5_2_3\00", align 1
@.str.23 = private unnamed_addr constant [28 x i8] c"ARKODE_ESDIRK32I5L2SA_5_2_3\00", align 1
@.str.24 = private unnamed_addr constant [27 x i8] c"ARKODE_ESDIRK436L2SA_6_3_4\00", align 1
@.str.25 = private unnamed_addr constant [28 x i8] c"ARKODE_ESDIRK43I6L2SA_6_3_4\00", align 1
@.str.26 = private unnamed_addr constant [28 x i8] c"ARKODE_QESDIRK436L2SA_6_3_4\00", align 1
@.str.27 = private unnamed_addr constant [27 x i8] c"ARKODE_ESDIRK437L2SA_7_3_4\00", align 1
@.str.28 = private unnamed_addr constant [27 x i8] c"ARKODE_ESDIRK547L2SA_7_4_5\00", align 1
@.str.29 = private unnamed_addr constant [28 x i8] c"ARKODE_ESDIRK547L2SA2_7_4_5\00", align 1
@__func__.ARKodeButcherTable_DIRKIDToName = private unnamed_addr constant [32 x i8] c"ARKodeButcherTable_DIRKIDToName\00", align 1

; Function Attrs: nounwind uwtable
define ptr @ARKodeButcherTable_DIRKIDToName(i32 noundef %0) #0 {
  %2 = alloca ptr, align 8
  %3 = alloca i32, align 4
  store i32 %0, ptr %3, align 4, !tbaa !3
  %4 = load i32, ptr %3, align 4, !tbaa !3
  switch i32 %4, label %33 [
    i32 -1, label %5
    i32 124, label %6
    i32 100, label %7
    i32 123, label %8
    i32 125, label %9
    i32 126, label %10
    i32 101, label %11
    i32 102, label %12
    i32 103, label %13
    i32 104, label %14
    i32 105, label %15
    i32 106, label %16
    i32 107, label %17
    i32 108, label %18
    i32 109, label %19
    i32 112, label %20
    i32 110, label %21
    i32 111, label %22
    i32 113, label %23
    i32 114, label %24
    i32 115, label %25
    i32 116, label %26
    i32 117, label %27
    i32 118, label %28
    i32 119, label %29
    i32 120, label %30
    i32 121, label %31
    i32 122, label %32
  ]

5:                                                ; preds = %1
  store ptr @.str.2, ptr %2, align 8
  br label %34

6:                                                ; preds = %1
  store ptr @.str.3, ptr %2, align 8
  br label %34

7:                                                ; preds = %1
  store ptr @.str.4, ptr %2, align 8
  br label %34

8:                                                ; preds = %1
  store ptr @.str.5, ptr %2, align 8
  br label %34

9:                                                ; preds = %1
  store ptr @.str.6, ptr %2, align 8
  br label %34

10:                                               ; preds = %1
  store ptr @.str.7, ptr %2, align 8
  br label %34

11:                                               ; preds = %1
  store ptr @.str.8, ptr %2, align 8
  br label %34

12:                                               ; preds = %1
  store ptr @.str.9, ptr %2, align 8
  br label %34

13:                                               ; preds = %1
  store ptr @.str.10, ptr %2, align 8
  br label %34

14:                                               ; preds = %1
  store ptr @.str.11, ptr %2, align 8
  br label %34

15:                                               ; preds = %1
  store ptr @.str.12, ptr %2, align 8
  br label %34

16:                                               ; preds = %1
  store ptr @.str.13, ptr %2, align 8
  br label %34

17:                                               ; preds = %1
  store ptr @.str.14, ptr %2, align 8
  br label %34

18:                                               ; preds = %1
  store ptr @.str.15, ptr %2, align 8
  br label %34

19:                                               ; preds = %1
  store ptr @.str.16, ptr %2, align 8
  br label %34

20:                                               ; preds = %1
  store ptr @.str.17, ptr %2, align 8
  br label %34

21:                                               ; preds = %1
  store ptr @.str.18, ptr %2, align 8
  br label %34

22:                                               ; preds = %1
  store ptr @.str.19, ptr %2, align 8
  br label %34

23:                                               ; preds = %1
  store ptr @.str.20, ptr %2, align 8
  br label %34

24:                                               ; preds = %1
  store ptr @.str.21, ptr %2, align 8
  br label %34

25:                                               ; preds = %1
  store ptr @.str.22, ptr %2, align 8
  br label %34

26:                                               ; preds = %1
  store ptr @.str.23, ptr %2, align 8
  br label %34

27:                                               ; preds = %1
  store ptr @.str.24, ptr %2, align 8
  br label %34

28:                                               ; preds = %1
  store ptr @.str.25, ptr %2, align 8
  br label %34

29:                                               ; preds = %1
  store ptr @.str.26, ptr %2, align 8
  br label %34

30:                                               ; preds = %1
  store ptr @.str.27, ptr %2, align 8
  br label %34

31:                                               ; preds = %1
  store ptr @.str.28, ptr %2, align 8
  br label %34

32:                                               ; preds = %1
  store ptr @.str.29, ptr %2, align 8
  br label %34

33:                                               ; preds = %1
  call void (ptr, i32, i32, ptr, ptr, ptr, ...) @arkProcessError(ptr noundef null, i32 noundef -22, i32 noundef 73, ptr noundef @__func__.ARKodeButcherTable_DIRKIDToName, ptr noundef @.str, ptr noundef @.str.1)
  store ptr null, ptr %2, align 8
  br label %34

34:                                               ; preds = %33, %32, %31, %30, %29, %28, %27, %26, %25, %24, %23, %22, %21, %20, %19, %18, %17, %16, %15, %14, %13, %12, %11, %10, %9, %8, %7, %6, %5
  %35 = load ptr, ptr %2, align 8
  ret ptr %35
}