; Function Attrs: nounwind uwtable
define noundef ptr @ARKodeButcherTable_DIRKIDToName(i32 noundef %0) local_unnamed_addr #0 {
  switch i32 %0, label %29 [
    i32 -1, label %30
    i32 124, label %2
    i32 100, label %3
    i32 123, label %4
    i32 125, label %5
    i32 126, label %6
    i32 101, label %7
    i32 102, label %8
    i32 103, label %9
    i32 104, label %10
    i32 105, label %11
    i32 106, label %12
    i32 107, label %13
    i32 108, label %14
    i32 109, label %15
    i32 112, label %16
    i32 110, label %17
    i32 111, label %18
    i32 113, label %19
    i32 114, label %20
    i32 115, label %21
    i32 116, label %22
    i32 117, label %23
    i32 118, label %24
    i32 119, label %25
    i32 120, label %26
    i32 121, label %27
    i32 122, label %28
  ]

2:                                                ; preds = %1
  br label %30

3:                                                ; preds = %1
  br label %30

4:                                                ; preds = %1
  br label %30

5:                                                ; preds = %1
  br label %30

6:                                                ; preds = %1
  br label %30

7:                                                ; preds = %1
  br label %30

8:                                                ; preds = %1
  br label %30

9:                                                ; preds = %1
  br label %30

10:                                               ; preds = %1
  br label %30

11:                                               ; preds = %1
  br label %30

12:                                               ; preds = %1
  br label %30

13:                                               ; preds = %1
  br label %30

14:                                               ; preds = %1
  br label %30

15:                                               ; preds = %1
  br label %30

16:                                               ; preds = %1
  br label %30

17:                                               ; preds = %1
  br label %30

18:                                               ; preds = %1
  br label %30

19:                                               ; preds = %1
  br label %30

20:                                               ; preds = %1
  br label %30

21:                                               ; preds = %1
  br label %30

22:                                               ; preds = %1
  br label %30

23:                                               ; preds = %1
  br label %30

24:                                               ; preds = %1
  br label %30

25:                                               ; preds = %1
  br label %30

26:                                               ; preds = %1
  br label %30

27:                                               ; preds = %1
  br label %30

28:                                               ; preds = %1
  br label %30

29:                                               ; preds = %1
  tail call void (ptr, i32, i32, ptr, ptr, ptr, ...) @arkProcessError(ptr noundef null, i32 noundef -22, i32 noundef 73, ptr noundef nonnull @__func__.ARKodeButcherTable_DIRKIDToName, ptr noundef nonnull @.str, ptr noundef nonnull @.str.1) #3
  br label %30

30:                                               ; preds = %1, %29, %28, %27, %26, %25, %24, %23, %22, %21, %20, %19, %18, %17, %16, %15, %14, %13, %12, %11, %10, %9, %8, %7, %6, %5, %4, %3, %2
  %.0 = phi ptr [ null, %29 ], [ @.str.29, %28 ], [ @.str.28, %27 ], [ @.str.27, %26 ], [ @.str.26, %25 ], [ @.str.25, %24 ], [ @.str.24, %23 ], [ @.str.23, %22 ], [ @.str.22, %21 ], [ @.str.21, %20 ], [ @.str.20, %19 ], [ @.str.19, %18 ], [ @.str.18, %17 ], [ @.str.17, %16 ], [ @.str.16, %15 ], [ @.str.15, %14 ], [ @.str.14, %13 ], [ @.str.13, %12 ], [ @.str.12, %11 ], [ @.str.11, %10 ], [ @.str.10, %9 ], [ @.str.9, %8 ], [ @.str.8, %7 ], [ @.str.7, %6 ], [ @.str.6, %5 ], [ @.str.5, %4 ], [ @.str.4, %3 ], [ @.str.3, %2 ], [ @.str.2, %1 ]
  ret ptr %.0
}